ccopy_reg
_reconstructor
p0
(cFWCore.ParameterSet.Config
Process
p1
c__builtin__
object
p2
Ntp3
Rp4
(dp5
S'MessageLogger'
p6
g0
(cFWCore.ParameterSet.Modules
Service
p7
g2
Ntp8
Rp9
(dp10
S'_isFrozen'
p11
I00
sS'suppressInfo'
p12
g0
(cFWCore.ParameterSet.Types
vstring
p13
c__builtin__
list
p14
(lp15
tp16
Rp17
(dp18
g11
I00
sS'_ParameterTypeBase__isTracked'
p19
I00
sS'_isModified'
p20
I00
sS'_nPerLine'
p21
I1
sbsS'suppressDebug'
p22
g0
(g13
g14
(lp23
tp24
Rp25
(dp26
g11
I00
sg19
I00
sg20
I00
sg21
I1
sbsS'cout'
p27
g0
(cFWCore.ParameterSet.Types
PSet
p28
g2
Ntp29
Rp30
(dp31
g11
I00
sg19
I00
sS'placeholder'
p32
g0
(cFWCore.ParameterSet.Types
bool
p33
g2
Ntp34
Rp35
(dp36
g11
I00
sg19
I00
sS'_value'
p37
I01
sg20
I00
sbsg20
I00
sS'_Parameterizable__parameterNames'
p38
(lp39
g32
asbsS'_lineNumber'
p40
I10
sS'debugModules'
p41
g0
(g13
g14
(lp42
tp43
Rp44
(dp45
g11
I00
sg19
I00
sg20
I00
sg21
I1
sbsS'_TypedParameterizable__type'
p46
g6
sS'fwkJobReports'
p47
g0
(g13
g14
(lp48
S'FrameworkJobReport'
p49
atp50
Rp51
(dp52
g11
I00
sg19
I00
sg20
I00
sg21
I1
sbsg38
(lp53
g12
aS'debugs'
p54
ag22
ag27
aS'cerr_stats'
p55
aS'warnings'
p56
aS'default'
p57
aS'statistics'
p58
aS'cerr'
p59
ag49
aS'suppressWarning'
p60
aS'errors'
p61
aS'destinations'
p62
ag41
aS'infos'
p63
aS'categories'
p64
ag47
asg58
g0
(g13
g14
(lp65
g55
atp66
Rp67
(dp68
g11
I00
sg19
I00
sg20
I00
sg21
I1
sbsS'_filename'
p69
S'/cvmfs/cms.cern.ch/slc6_amd64_gcc530/cms/cmssw/CMSSW_8_0_26/python/FWCore/ParameterSet/Modules.py'
p70
sg62
g0
(g13
g14
(lp71
g56
ag61
ag63
ag54
ag27
ag59
atp72
Rp73
(dp74
g11
I00
sg19
I00
sg20
I00
sg21
I1
sbsg54
g0
(g28
g2
Ntp75
Rp76
(dp77
g11
I00
sg19
I00
sg32
g0
(g33
g2
Ntp78
Rp79
(dp80
g11
I00
sg19
I00
sg37
I01
sg20
I00
sbsg20
I00
sg38
(lp81
g32
asbsg56
g0
(g28
g2
Ntp82
Rp83
(dp84
g11
I00
sg19
I00
sg32
g0
(g33
g2
Ntp85
Rp86
(dp87
g11
I00
sg19
I00
sg37
I01
sg20
I00
sbsg20
I00
sg38
(lp88
g32
asbsg61
g0
(g28
g2
Ntp89
Rp90
(dp91
g11
I00
sg19
I00
sg32
g0
(g33
g2
Ntp92
Rp93
(dp94
g11
I00
sg19
I00
sg37
I01
sg20
I00
sbsg20
I00
sg38
(lp95
g32
asbsg49
g0
(g28
g2
Ntp96
Rp97
(dp98
g11
I00
sg19
I00
sg20
I00
sg57
g0
(g28
g2
Ntp99
Rp100
(dp101
g11
I00
sg19
I00
sS'limit'
p102
g0
(cFWCore.ParameterSet.Types
int32
p103
g2
Ntp104
Rp105
(dp106
g11
I00
sg19
I00
sg37
I0
sg20
I00
sbsg20
I00
sg38
(lp107
g102
asbsS'FwkJob'
p108
g0
(g28
g2
Ntp109
Rp110
(dp111
g11
I00
sg19
I00
sg20
I00
sg102
g0
(g103
g2
Ntp112
Rp113
(dp114
g11
I00
sg19
I00
sg37
I10000000
sg20
I00
sbsg38
(lp115
S'optionalPSet'
p116
ag102
asg116
g0
(g33
g2
Ntp117
Rp118
(dp119
g11
I00
sg19
I00
sg37
I01
sg20
I00
sbsbsg38
(lp120
g57
ag116
ag108
asg116
g0
(g33
g2
Ntp121
Rp122
(dp123
g11
I00
sg19
I00
sg37
I01
sg20
I00
sbsbsg60
g0
(g13
g14
(lp124
tp125
Rp126
(dp127
g11
I00
sg19
I00
sg20
I00
sg21
I1
sbsg63
g0
(g28
g2
Ntp128
Rp129
(dp130
g11
I00
sg19
I00
sg20
I00
sS'Root_NoDictionary'
p131
g0
(g28
g2
Ntp132
Rp133
(dp134
g11
I00
sg19
I00
sg20
I00
sg102
g0
(g103
g2
Ntp135
Rp136
(dp137
g11
I00
sg19
I00
sg37
I0
sg20
I00
sbsg38
(lp138
g116
ag102
asg116
g0
(g33
g2
Ntp139
Rp140
(dp141
g11
I00
sg19
I00
sg37
I01
sg20
I00
sbsbsg38
(lp142
g116
ag131
ag32
asg116
g0
(g33
g2
Ntp143
Rp144
(dp145
g11
I00
sg19
I00
sg37
I01
sg20
I00
sbsg32
g0
(g33
g2
Ntp146
Rp147
(dp148
g11
I00
sg19
I00
sg37
I01
sg20
I00
sbsbsg64
g0
(g13
g14
(lp149
g108
aS'FwkReport'
p150
aS'FwkSummary'
p151
ag131
atp152
Rp153
(dp154
g11
I00
sg19
I00
sg20
I00
sg21
I1
sbsg20
I00
sg55
g0
(g28
g2
Ntp155
Rp156
(dp157
g11
I00
sg19
I00
sg20
I00
sg116
g0
(g33
g2
Ntp158
Rp159
(dp160
g11
I00
sg19
I00
sg37
I01
sg20
I00
sbsg38
(lp161
S'threshold'
p162
aS'output'
p163
ag116
asg162
g0
(cFWCore.ParameterSet.Types
string
p164
g2
Ntp165
Rp166
(dp167
g11
I00
sg19
I00
sg37
S'WARNING'
p168
sg20
I00
sbsg163
g0
(g164
g2
Ntp169
Rp170
(dp171
g11
I00
sg19
I00
sg37
g59
sg20
I00
sbsbsg57
g0
(g28
g2
Ntp172
Rp173
(dp174
g11
I00
sg19
I00
sg20
I00
sg38
(lp175
sbsg59
g0
(g28
g2
Ntp176
Rp177
(dp178
g11
I00
sg19
I00
sS'noTimeStamps'
p179
g0
(g33
g2
Ntp180
Rp181
(dp182
g11
I00
sg19
I00
sg37
I00
sg20
I00
sbsg150
g0
(g28
g2
Ntp183
Rp184
(dp185
g11
I00
sg19
I00
sg20
I00
sS'reportEvery'
p186
g0
(g103
g2
Ntp187
Rp188
(dp189
g11
I00
sg19
I00
sg37
I1
sg20
I00
sbsg102
g0
(g103
g2
Ntp190
Rp191
(dp192
g11
I00
sg19
I00
sg37
I10000000
sg20
I00
sbsg38
(lp193
g186
ag116
ag102
asg116
g0
(g33
g2
Ntp194
Rp195
(dp196
g11
I00
sg19
I00
sg37
I01
sg20
I00
sbsbsg20
I00
sg57
g0
(g28
g2
Ntp197
Rp198
(dp199
g11
I00
sg19
I00
sg102
g0
(g103
g2
Ntp200
Rp201
(dp202
g11
I00
sg19
I00
sg37
I10000000
sg20
I00
sbsg20
I00
sg38
(lp203
g102
asbsg131
g0
(g28
g2
Ntp204
Rp205
(dp206
g11
I00
sg19
I00
sg20
I00
sg102
g0
(g103
g2
Ntp207
Rp208
(dp209
g11
I00
sg19
I00
sg37
I0
sg20
I00
sbsg38
(lp210
g116
ag102
asg116
g0
(g33
g2
Ntp211
Rp212
(dp213
g11
I00
sg19
I00
sg37
I01
sg20
I00
sbsbsS'INFO'
p214
g0
(g28
g2
Ntp215
Rp216
(dp217
g11
I00
sg19
I00
sg102
g0
(g103
g2
Ntp218
Rp219
(dp220
g11
I00
sg19
I00
sg37
I0
sg20
I00
sbsg20
I00
sg38
(lp221
g102
asbsg116
g0
(g33
g2
Ntp222
Rp223
(dp224
g11
I00
sg19
I00
sg37
I01
sg20
I00
sbsg108
g0
(g28
g2
Ntp225
Rp226
(dp227
g11
I00
sg19
I00
sg20
I00
sg102
g0
(g103
g2
Ntp228
Rp229
(dp230
g11
I00
sg19
I00
sg37
I0
sg20
I00
sbsg38
(lp231
g116
ag102
asg116
g0
(g33
g2
Ntp232
Rp233
(dp234
g11
I00
sg19
I00
sg37
I01
sg20
I00
sbsbsg151
g0
(g28
g2
Ntp235
Rp236
(dp237
g11
I00
sg19
I00
sg20
I00
sg186
g0
(g103
g2
Ntp238
Rp239
(dp240
g11
I00
sg19
I00
sg37
I1
sg20
I00
sbsg102
g0
(g103
g2
Ntp241
Rp242
(dp243
g11
I00
sg19
I00
sg37
I10000000
sg20
I00
sbsg38
(lp244
g186
ag116
ag102
asg116
g0
(g33
g2
Ntp245
Rp246
(dp247
g11
I00
sg19
I00
sg37
I01
sg20
I00
sbsbsg38
(lp248
g214
ag179
ag150
ag57
ag131
ag162
ag108
ag151
ag116
asg162
g0
(g164
g2
Ntp249
Rp250
(dp251
g11
I00
sg19
I00
sg37
g214
sg20
I00
sbsbsbsS'pfNoPileUpJMESequence'
p252
g0
(cFWCore.ParameterSet.SequenceTypes
Sequence
p253
g2
Ntp254
Rp255
(dp256
g11
I00
sS'_seq'
p257
g0
(cFWCore.ParameterSet.SequenceTypes
_SequenceCollection
p258
g2
Ntp259
Rp260
(dp261
S'_collection'
p262
(lp263
g0
(cFWCore.ParameterSet.Modules
EDFilter
p264
g2
Ntp265
Rp266
(dp267
g38
(lp268
S'filter'
p269
aS'src'
p270
aS'cut'
p271
asg11
I00
sg271
g0
(g164
g2
Ntp272
Rp273
(dp274
g11
I00
sg19
I01
sg37
S'!isFake && ndof >= 4.0 && abs(z) <= 24.0 && abs(position.Rho) <= 2.0'
p275
sg20
I00
sbsg20
I00
sg270
g0
(cFWCore.ParameterSet.Types
InputTag
p276
g2
Ntp277
Rp278
(dp279
g11
I00
sg19
I01
sg20
I00
sS'_InputTag__moduleLabel'
p280
S'offlinePrimaryVertices'
p281
sS'_InputTag__processName'
p282
S''
p283
sS'_InputTag__productInstance'
p284
g283
sbsg69
S'/cvmfs/cms.cern.ch/slc6_amd64_gcc530/cms/cmssw/CMSSW_8_0_26/python/CommonTools/ParticleFlow/goodOfflinePrimaryVertices_cfi.py'
p285
sg269
g0
(g33
g2
Ntp286
Rp287
(dp288
g11
I00
sg19
I01
sg37
I00
sg20
I00
sbsg40
I6
sS'_Labelable__label'
p289
S'goodOfflinePrimaryVertices'
p290
sg46
S'VertexSelector'
p291
sbag0
(cFWCore.ParameterSet.Modules
EDProducer
p292
g2
Ntp293
Rp294
(dp295
g38
(lp296
S'checkClosestZVertex'
p297
aS'Enable'
p298
aS'PFCandidates'
p299
aS'verbose'
p300
aS'Vertices'
p301
asg11
I00
sg298
g0
(g33
g2
Ntp302
Rp303
(dp304
g11
I00
sg19
I01
sg37
I01
sg20
I00
sbsg297
g0
(g33
g2
Ntp305
Rp306
(dp307
g11
I00
sg19
I01
sg37
I00
sg20
I01
sbsg20
I00
sg40
I9
sg69
S'/cvmfs/cms.cern.ch/slc6_amd64_gcc530/cms/cmssw/CMSSW_8_0_26/python/CommonTools/ParticleFlow/pfNoPileUpJME_cff.py'
p308
sg299
g0
(g276
g2
Ntp309
Rp310
(dp311
g11
I00
sg19
I01
sg20
I01
sg280
S'particleFlowPtrs'
p312
sg284
g283
sg282
g283
sbsg301
g0
(g276
g2
Ntp313
Rp314
(dp315
g11
I00
sg19
I01
sg20
I01
sg280
g290
sg284
g283
sg282
g283
sbsg289
S'pfPileUpJME'
p316
sg46
S'PFPileUp'
p317
sg300
g0
(g33
g2
Ntp318
Rp319
(dp320
g11
I00
sg19
I00
sg37
I00
sg20
I00
sbsbag0
(g292
g2
Ntp321
Rp322
(dp323
g38
(lp324
S'bottomCollection'
p325
aS'enable'
p326
aS'topCollection'
p327
aS'name'
p328
ag300
asg11
I00
sg326
g0
(g33
g2
Ntp329
Rp330
(dp331
g11
I00
sg19
I01
sg37
I01
sg20
I00
sbsg300
g0
(g33
g2
Ntp332
Rp333
(dp334
g11
I00
sg19
I00
sg37
I00
sg20
I00
sbsg20
I00
sg40
I11
sg325
g0
(g276
g2
Ntp335
Rp336
(dp337
g11
I00
sg19
I01
sg20
I01
sg280
g312
sg284
g283
sg282
g283
sbsg327
g0
(g276
g2
Ntp338
Rp339
(dp340
g11
I00
sg19
I01
sg20
I01
sg280
g316
sg284
g283
sg282
g283
sbsg69
g308
sg289
S'pfNoPileUpJME'
p341
sg46
S'TPPFCandidatesOnPFCandidates'
p342
sg328
g0
(g164
g2
Ntp343
Rp344
(dp345
g11
I00
sg19
I00
sg37
S'pileUpOnPFCandidates'
p346
sg20
I00
sbsbasbsg20
I00
sg289
g252
sbsS'_Process__sequences'
p347
(dp348
S'pfNoPileUpIsoSequence'
p349
g0
(g253
g2
Ntp350
Rp351
(dp352
g11
I00
sg257
g0
(g258
g2
Ntp353
Rp354
(dp355
g262
(lp356
g0
(g292
g2
Ntp357
Rp358
(dp359
g38
(lp360
g297
ag298
ag299
ag300
ag301
asg11
I00
sg298
g0
(g33
g2
Ntp361
Rp362
(dp363
g11
I00
sg19
I01
sg37
I01
sg20
I00
sbsg297
g0
(g33
g2
Ntp364
Rp365
(dp366
g11
I00
sg19
I01
sg37
I01
sg20
I00
sbsg20
I01
sg40
I6
sg69
S'/cvmfs/cms.cern.ch/slc6_amd64_gcc530/cms/cmssw/CMSSW_8_0_26/python/CommonTools/ParticleFlow/pfNoPileUpIso_cff.py'
p367
sg299
g0
(g276
g2
Ntp368
Rp369
(dp370
g11
I00
sg19
I01
sg20
I01
sg280
g312
sg284
g283
sg282
g283
sbsg301
g0
(g276
g2
Ntp371
Rp372
(dp373
g11
I00
sg19
I01
sg20
I00
sg280
g281
sg284
g283
sg282
g283
sbsg289
S'pfPileUpIso'
p374
sg46
g317
sg300
g0
(g33
g2
Ntp375
Rp376
(dp377
g11
I00
sg19
I00
sg37
I00
sg20
I00
sbsbag0
(g292
g2
Ntp378
Rp379
(dp380
g38
(lp381
g325
ag326
ag327
ag328
ag300
asg11
I00
sg326
g0
(g33
g2
Ntp382
Rp383
(dp384
g11
I00
sg19
I01
sg37
I01
sg20
I00
sbsg300
g0
(g33
g2
Ntp385
Rp386
(dp387
g11
I00
sg19
I00
sg37
I00
sg20
I00
sbsg20
I01
sg40
I7
sg325
g0
(g276
g2
Ntp388
Rp389
(dp390
g11
I00
sg19
I01
sg20
I01
sg280
g312
sg284
g283
sg282
g283
sbsg327
g0
(g276
g2
Ntp391
Rp392
(dp393
g11
I00
sg19
I01
sg20
I01
sg280
g374
sg284
g283
sg282
g283
sbsg69
g367
sg289
S'pfNoPileUpIso'
p394
sg46
g342
sg328
g0
(g164
g2
Ntp395
Rp396
(dp397
g11
I00
sg19
I00
sg37
g346
sg20
I00
sbsbasbsg20
I00
sg289
g349
sbsg252
g255
sS'pfParticleSelectionSequence'
p398
g0
(g253
g2
Ntp399
Rp400
(dp401
g11
I00
sg257
g0
(g258
g2
Ntp402
Rp403
(dp404
g262
(lp405
g351
ag0
(g253
g2
Ntp406
Rp407
(dp408
g11
I00
sg257
g0
(g258
g2
Ntp409
Rp410
(dp411
g262
(lp412
g0
(g292
g2
Ntp413
Rp414
(dp415
g38
(lp416
g299
ag298
ag297
ag300
ag301
asg11
I00
sg298
g0
(g33
g2
Ntp417
Rp418
(dp419
g11
I00
sg19
I01
sg37
I01
sg20
I00
sbsg297
g0
(g33
g2
Ntp420
Rp421
(dp422
g11
I00
sg19
I01
sg37
I01
sg20
I00
sbsg20
I00
sg40
I11
sg69
S'/cvmfs/cms.cern.ch/slc6_amd64_gcc530/cms/cmssw/CMSSW_8_0_26/python/CommonTools/ParticleFlow/pfPileUp_cfi.py'
p423
sg299
g0
(g276
g2
Ntp424
Rp425
(dp426
g11
I00
sg19
I01
sg20
I00
sg280
S'particleFlowTmpPtrs'
p427
sg282
g283
sg284
g283
sbsg301
g0
(g276
g2
Ntp428
Rp429
(dp430
g11
I00
sg19
I01
sg20
I00
sg280
g281
sg282
g283
sg284
g283
sbsg289
S'pfPileUp'
p431
sg46
g317
sg300
g0
(g33
g2
Ntp432
Rp433
(dp434
g11
I00
sg19
I00
sg37
I00
sg20
I00
sbsbag0
(g292
g2
Ntp435
Rp436
(dp437
g38
(lp438
g325
ag326
ag327
ag328
ag300
asg11
I00
sg326
g0
(g33
g2
Ntp439
Rp440
(dp441
g11
I00
sg19
I01
sg37
I01
sg20
I00
sbsg300
g0
(g33
g2
Ntp442
Rp443
(dp444
g11
I00
sg19
I00
sg37
I00
sg20
I00
sbsg20
I00
sg40
I9
sg325
g0
(g276
g2
Ntp445
Rp446
(dp447
g11
I00
sg19
I01
sg20
I00
sg280
g427
sg282
g283
sg284
g283
sbsg327
g0
(g276
g2
Ntp448
Rp449
(dp450
g11
I00
sg19
I01
sg20
I00
sg280
g431
sg282
g283
sg284
g283
sbsg69
S'/cvmfs/cms.cern.ch/slc6_amd64_gcc530/cms/cmssw/CMSSW_8_0_26/python/CommonTools/ParticleFlow/TopProjectors/pfNoPileUp_cfi.py'
p451
sg289
S'pfNoPileUp'
p452
sg46
g342
sg328
g0
(g164
g2
Ntp453
Rp454
(dp455
g11
I00
sg19
I00
sg37
g346
sg20
I00
sbsbasbsg20
I00
sg289
S'pfNoPileUpSequence'
p456
sbag0
(g253
g2
Ntp457
Rp458
(dp459
g11
I00
sg257
g0
(g258
g2
Ntp460
Rp461
(dp462
g262
(lp463
g0
(g264
g2
Ntp464
Rp465
(dp466
g38
(lp467
S'pdgId'
p468
aS'makeClones'
p469
ag270
asg11
I00
sg20
I00
sg469
g0
(g33
g2
Ntp470
Rp471
(dp472
g11
I00
sg19
I01
sg37
I01
sg20
I00
sbsg270
g0
(g276
g2
Ntp473
Rp474
(dp475
g11
I00
sg19
I01
sg20
I00
sg280
g394
sg282
g283
sg284
g283
sbsg468
g0
(cFWCore.ParameterSet.Types
vint32
p476
g14
(lp477
I111
aI130
aI310
aI2112
atp478
Rp479
(dp480
g11
I00
sg19
I01
sg20
I00
sbsg40
I6
sg69
S'/cvmfs/cms.cern.ch/slc6_amd64_gcc530/cms/cmssw/CMSSW_8_0_26/python/CommonTools/ParticleFlow/ParticleSelectors/pfAllNeutralHadrons_cfi.py'
p481
sg289
S'pfAllNeutralHadrons'
p482
sg46
S'PFCandidateFwdPtrCollectionPdgIdFilter'
p483
sbag0
(g264
g2
Ntp484
Rp485
(dp486
g38
(lp487
g468
ag469
ag270
asg11
I00
sg20
I00
sg469
g0
(g33
g2
Ntp488
Rp489
(dp490
g11
I00
sg19
I01
sg37
I01
sg20
I00
sbsg270
g0
(g276
g2
Ntp491
Rp492
(dp493
g11
I00
sg19
I01
sg20
I00
sg280
g394
sg282
g283
sg284
g283
sbsg468
g0
(g476
g14
(lp494
I211
aI-211
aI321
aI-321
aI999211
aI2212
aI-2212
atp495
Rp496
(dp497
g11
I00
sg19
I01
sg20
I00
sbsg40
I6
sg69
S'/cvmfs/cms.cern.ch/slc6_amd64_gcc530/cms/cmssw/CMSSW_8_0_26/python/CommonTools/ParticleFlow/ParticleSelectors/pfAllChargedHadrons_cfi.py'
p498
sg289
S'pfAllChargedHadrons'
p499
sg46
g483
sbag0
(g264
g2
Ntp500
Rp501
(dp502
g38
(lp503
g468
ag469
ag270
asg11
I00
sg20
I00
sg469
g0
(g33
g2
Ntp504
Rp505
(dp506
g11
I00
sg19
I01
sg37
I01
sg20
I00
sbsg270
g0
(g276
g2
Ntp507
Rp508
(dp509
g11
I00
sg19
I01
sg20
I00
sg280
g394
sg282
g283
sg284
g283
sbsg468
g0
(g476
g14
(lp510
I22
atp511
Rp512
(dp513
g11
I00
sg19
I01
sg20
I00
sbsg40
I6
sg69
S'/cvmfs/cms.cern.ch/slc6_amd64_gcc530/cms/cmssw/CMSSW_8_0_26/python/CommonTools/ParticleFlow/ParticleSelectors/pfAllPhotons_cfi.py'
p514
sg289
S'pfAllPhotons'
p515
sg46
g483
sbag0
(g264
g2
Ntp516
Rp517
(dp518
g38
(lp519
g468
ag469
ag270
asg11
I00
sg20
I00
sg469
g0
(g33
g2
Ntp520
Rp521
(dp522
g11
I00
sg19
I01
sg37
I01
sg20
I00
sbsg270
g0
(g276
g2
Ntp523
Rp524
(dp525
g11
I00
sg19
I01
sg20
I00
sg280
g394
sg282
g283
sg284
g283
sbsg468
g0
(g476
g14
(lp526
I211
aI-211
aI321
aI-321
aI999211
aI2212
aI-2212
aI11
aI-11
aI13
aI-13
atp527
Rp528
(dp529
g11
I00
sg19
I01
sg20
I00
sbsg40
I6
sg69
S'/cvmfs/cms.cern.ch/slc6_amd64_gcc530/cms/cmssw/CMSSW_8_0_26/python/CommonTools/ParticleFlow/ParticleSelectors/pfAllChargedParticles_cfi.py'
p530
sg289
S'pfAllChargedParticles'
p531
sg46
g483
sbag0
(g264
g2
Ntp532
Rp533
(dp534
g38
(lp535
g468
ag469
ag270
asg11
I00
sg20
I00
sg469
g0
(g33
g2
Ntp536
Rp537
(dp538
g11
I00
sg19
I01
sg37
I01
sg20
I00
sbsg270
g0
(g276
g2
Ntp539
Rp540
(dp541
g11
I00
sg19
I01
sg20
I01
sg280
g374
sg284
g283
sg282
g283
sbsg468
g0
(g476
g14
(lp542
I211
aI-211
aI321
aI-321
aI999211
aI2212
aI-2212
aI11
aI-11
aI13
aI-13
atp543
Rp544
(dp545
g11
I00
sg19
I01
sg20
I00
sbsg40
I13
sg69
S'/cvmfs/cms.cern.ch/slc6_amd64_gcc530/cms/cmssw/CMSSW_8_0_26/python/CommonTools/ParticleFlow/ParticleSelectors/pfSortByType_cff.py'
p546
sg289
S'pfPileUpAllChargedParticles'
p547
sg46
g483
sbag0
(g264
g2
Ntp548
Rp549
(dp550
g38
(lp551
g468
ag469
ag270
asg11
I00
sg20
I00
sg469
g0
(g33
g2
Ntp552
Rp553
(dp554
g11
I00
sg19
I01
sg37
I01
sg20
I00
sbsg270
g0
(g276
g2
Ntp555
Rp556
(dp557
g11
I00
sg19
I01
sg20
I00
sg280
g394
sg282
g283
sg284
g283
sbsg468
g0
(g476
g14
(lp558
I22
aI111
aI130
aI310
aI2112
atp559
Rp560
(dp561
g11
I00
sg19
I01
sg20
I00
sbsg40
I6
sg69
S'/cvmfs/cms.cern.ch/slc6_amd64_gcc530/cms/cmssw/CMSSW_8_0_26/python/CommonTools/ParticleFlow/ParticleSelectors/pfAllNeutralHadronsAndPhotons_cfi.py'
p562
sg289
S'pfAllNeutralHadronsAndPhotons'
p563
sg46
g483
sbasbsg20
I00
sg289
S'pfSortByTypeSequence'
p564
sbasbsg20
I00
sg289
g398
sbsg564
g458
sg456
g407
ssS'_Process__services'
p565
(dp566
g6
g9
sS'TFileService'
p567
g0
(g7
g2
Ntp568
Rp569
(dp570
g38
(lp571
S'fileName'
p572
asg11
I00
sg20
I00
sg40
I10
sg69
g70
sg572
g0
(g164
g2
Ntp573
Rp574
(dp575
g11
I00
sg19
I01
sg37
S'mytree.root'
p576
sg20
I00
sbsg46
g567
sbssg547
g533
sg564
g458
sS'_Process__source'
p577
g0
(cFWCore.ParameterSet.Modules
Source
p578
g2
Ntp579
Rp580
(dp581
g38
(lp582
S'fileNames'
p583
asg11
I00
sg20
I00
sg40
I175
sg69
g70
sg583
g0
(g13
g14
(lp584
tp585
Rp586
(dp587
g11
I00
sg19
I00
sg20
I00
sg21
I1
sbsg46
S'PoolSource'
p588
sbsS'_Process__aliases'
p589
(dp590
sg316
g294
sg531
g517
sg398
g400
sS'_Process__psets'
p591
(dp592
S'maxEvents'
p593
g0
(g28
g2
Ntp594
Rp595
(dp596
g11
I00
sg19
I00
sg20
I00
sg38
(lp597
S'input'
p598
asg289
g593
sg598
g0
(g103
g2
Ntp599
Rp600
(dp601
g11
I00
sg19
I00
sg37
I-1
sg20
I00
sbsbsS'options'
p602
g0
(g28
g2
Ntp603
Rp604
(dp605
g11
I00
sg19
I00
sg20
I00
sg38
(lp606
S'allowUnscheduled'
p607
asg289
g602
sg607
g0
(g33
g2
Ntp608
Rp609
(dp610
g11
I00
sg19
I00
sg37
I01
sg20
I00
sbsbssg567
g569
sS'_Process__essources'
p611
(dp612
sg588
g580
sg290
g266
sg452
g436
sg593
g595
sS'source'
p613
g580
sg602
g604
sS'_Process__vpsets'
p614
(dp615
sS'pfAllElectronsClones'
p616
g0
(g292
g2
Ntp617
Rp618
(dp619
g38
(lp620
g270
asg11
I00
sg20
I00
sg270
g0
(g276
g2
Ntp621
Rp622
(dp623
g11
I00
sg19
I01
sg20
I00
sg280
S'pfAllElectrons'
p624
sg282
g283
sg284
g283
sbsg69
S'/cvmfs/cms.cern.ch/slc6_amd64_gcc530/cms/cmssw/CMSSW_8_0_26/python/CommonTools/ParticleFlow/ParticleSelectors/pfAllElectrons_cfi.py'
p625
sg40
I11
sg289
g616
sg46
S'PFCandidateProductFromFwdPtrProducer'
p626
sbsS'_Process__name'
p627
S'Demo'
p628
sg456
g407
sg341
g322
sS'_Process__subProcesses'
p629
(lp630
sg563
g549
sS'_cloneToObjectDict'
p631
(dp632
I139852104004432
g358
sI139852103660432
g549
sI139852103660496
g533
sI139852103713936
g595
sI139852104131856
g351
sI139852104134544
g0
(g264
g2
Ntp633
Rp634
(dp635
g38
(lp636
g468
ag469
ag270
asg11
I00
sg20
I00
sg469
g0
(g33
g2
Ntp637
Rp638
(dp639
g11
I00
sg19
I01
sg37
I01
sg20
I00
sbsg270
g0
(g276
g2
Ntp640
Rp641
(dp642
g11
I00
sg19
I01
sg20
I00
sg280
g452
sg282
g283
sg284
g283
sbsg468
g0
(g476
g14
(lp643
I-13
aI13
atp644
Rp645
(dp646
g11
I00
sg19
I01
sg20
I00
sbsg40
I6
sg69
S'/cvmfs/cms.cern.ch/slc6_amd64_gcc530/cms/cmssw/CMSSW_8_0_26/python/CommonTools/ParticleFlow/ParticleSelectors/pfAllMuons_cfi.py'
p647
sg289
S'pfAllMuons'
p648
sg46
g483
sbsI139852103660944
g400
sI139852103661008
g458
sI139852104464272
g414
sI139852104132560
g266
sI139852104132624
g294
sI139852104132688
g322
sI139852103715408
g0
(cFWCore.ParameterSet.SequenceTypes
Path
p649
g2
Ntp650
Rp651
(dp652
g11
I00
sg257
g0
(g258
g2
Ntp653
Rp654
(dp655
g262
(lp656
g0
(g253
g2
Ntp657
Rp658
(dp659
g11
I00
sg257
g0
(g258
g2
Ntp660
Rp661
(dp662
g262
(lp663
g351
ag458
asbsg20
I00
sbag0
(cFWCore.ParameterSet.Modules
EDAnalyzer
p664
g2
Ntp665
Rp666
(dp667
g38
(lp668
S'pfcands'
p669
aS'pfAllChHs'
p670
aS'beamspot'
p671
aS'pfAllNeuHs'
p672
aS'vertexs'
p673
aS'pfAllChPs'
p674
aS'tracks'
p675
aS'pfAllPhs'
p676
aS'pfAllPUChPs'
p677
aS'pfmet'
p678
aS'dedxs'
p679
aS'pfjets'
p680
aS'dedxpixels'
p681
asg11
I00
sg670
g0
(g276
g2
Ntp682
Rp683
(dp684
g11
I00
sg19
I00
sg20
I00
sg280
g499
sg282
g283
sg284
g283
sbsg20
I00
sg69
S'/home/users/mmasciov/MT2/8_0_26/src/Histo/HistoAnalyzer/python/ConfFile_cfg.py'
p685
sg674
g0
(g276
g2
Ntp686
Rp687
(dp688
g11
I00
sg19
I00
sg20
I00
sg280
g531
sg282
g283
sg284
g283
sbsg673
g0
(g276
g2
Ntp689
Rp690
(dp691
g11
I00
sg19
I00
sg20
I00
sg280
g281
sg282
g283
sg284
g283
sbsg672
g0
(g276
g2
Ntp692
Rp693
(dp694
g11
I00
sg19
I00
sg20
I00
sg280
g482
sg282
g283
sg284
g283
sbsg676
g0
(g276
g2
Ntp695
Rp696
(dp697
g11
I00
sg19
I00
sg20
I00
sg280
g515
sg282
g283
sg284
g283
sbsg680
g0
(g276
g2
Ntp698
Rp699
(dp700
g11
I00
sg19
I00
sg20
I00
sg280
S'ak4PFJetsCHS'
p701
sg282
g283
sg284
g283
sbsg675
g0
(g276
g2
Ntp702
Rp703
(dp704
g11
I00
sg19
I00
sg20
I00
sg280
S'generalTracks'
p705
sg282
g283
sg284
g283
sbsg677
g0
(g276
g2
Ntp706
Rp707
(dp708
g11
I00
sg19
I00
sg20
I00
sg280
g547
sg282
g283
sg284
g283
sbsg40
I37
sg678
g0
(g276
g2
Ntp709
Rp710
(dp711
g11
I00
sg19
I00
sg20
I00
sg280
S'pfMet'
p712
sg282
g283
sg284
g283
sbsg289
S'newtree'
p713
sg679
g0
(g276
g2
Ntp714
Rp715
(dp716
g11
I00
sg19
I00
sg20
I00
sg280
S'dedxHarmonic2'
p717
sg282
g283
sg284
g283
sbsg669
g0
(g276
g2
Ntp718
Rp719
(dp720
g11
I00
sg19
I00
sg20
I00
sg280
S'particleFlow'
p721
sg282
g283
sg284
g283
sbsg681
g0
(g276
g2
Ntp722
Rp723
(dp724
g11
I00
sg19
I00
sg20
I00
sg280
S'dedxHitInfo'
p725
sg282
g283
sg284
g283
sbsg46
S'HistoAnalyzer'
p726
sg671
g0
(g276
g2
Ntp727
Rp728
(dp729
g11
I00
sg19
I00
sg20
I00
sg280
S'offlineBeamSpot'
p730
sg282
g283
sg284
g283
sbsbasbsg20
I00
sg289
S'p'
p731
sbsI139852104133456
g255
sI139852104133584
g407
sI139852104133840
g465
sI139852104131408
g379
sI139852104134352
g501
sI139852104134096
g485
sI139852103659600
g0
(g292
g2
Ntp732
Rp733
(dp734
g38
(lp735
g270
asg11
I00
sg20
I00
sg270
g0
(g276
g2
Ntp736
Rp737
(dp738
g11
I00
sg19
I01
sg20
I00
sg280
g648
sg282
g283
sg284
g283
sbsg69
g647
sg40
I10
sg289
S'pfAllMuonsClones'
p739
sg46
g626
sbsI139852103659856
g0
(g264
g2
Ntp740
Rp741
(dp742
g38
(lp743
g468
ag469
ag270
asg11
I00
sg20
I00
sg469
g0
(g33
g2
Ntp744
Rp745
(dp746
g11
I00
sg19
I01
sg37
I01
sg20
I00
sbsg270
g0
(g276
g2
Ntp747
Rp748
(dp749
g11
I00
sg19
I01
sg20
I00
sg280
S'pfNoMuon'
p750
sg282
g283
sg284
g283
sbsg468
g0
(g476
g14
(lp751
I11
aI-11
atp752
Rp753
(dp754
g11
I00
sg19
I01
sg20
I00
sbsg40
I6
sg69
g625
sg289
g624
sg46
g483
sbsI139852103659984
g618
sI139852103714064
g604
sI139852103660176
g517
sI139852103714192
g666
sI139852104004368
g436
ssg624
g741
sg349
g351
sS'_Process__esprefers'
p755
(dp756
sS'_Process__schedule'
p757
NsS'_Process__outputmodules'
p758
(dp759
sS'_Process__analyzers'
p760
(dp761
g713
g666
ssS'_Process__InExtendCall'
p762
I00
sg739
g733
sS'_Process__modifiers'
p763
(tsS'_Process__producers'
p764
(dp765
g616
g618
sg452
g436
sg341
g322
sg394
g379
sg374
g358
sg316
g294
sg431
g414
sg739
g733
ssg499
g485
sg713
g666
sS'_Process__filters'
p766
(dp767
g499
g485
sg547
g533
sg624
g741
sg482
g465
sg290
g266
sg515
g501
sg563
g549
sg531
g517
sg648
g634
ssS'_Process__looper'
p768
Nsg482
g465
sS'_Process__endpaths'
p769
g0
(cFWCore.ParameterSet.DictTypes
SortedKeysDict
p770
c__builtin__
dict
p771
(dp772
tp773
Rp774
(dp775
S'list'
p776
(lp777
sbsS'_Process__esproducers'
p778
(dp779
sg731
g651
sS'_Process__paths'
p780
g0
(g770
g771
(dp781
g731
g651
stp782
Rp783
(dp784
g776
(lp785
g731
asbsg515
g501
sg394
g379
sg374
g358
sS'_Process__partialschedules'
p786
(dp787
sg648
g634
sg431
g414
sS'_Process__isStrict'
p788
I00
sb.